target datalayout = "e-m:e-p270:32:32-p271:32:32-p272:64:64-i64:64-i128:128-f80:128-n8:16:32:64-S128"
target triple = "x86_64-pc-linux-gnu"

@.str = private unnamed_addr constant [8 x i8] c"Machine\00", align 1
@.str.1 = private unnamed_addr constant [5 x i8] c"Misc\00", align 1
@.str.2 = private unnamed_addr constant [6 x i8] c"Group\00", align 1
@.str.3 = private unnamed_addr constant [9 x i8] c"MemCache\00", align 1
@.str.4 = private unnamed_addr constant [9 x i8] c"NUMANode\00", align 1
@.str.5 = private unnamed_addr constant [8 x i8] c"Package\00", align 1
@.str.6 = private unnamed_addr constant [4 x i8] c"Die\00", align 1
@.str.7 = private unnamed_addr constant [8 x i8] c"L1Cache\00", align 1
@.str.8 = private unnamed_addr constant [8 x i8] c"L2Cache\00", align 1
@.str.9 = private unnamed_addr constant [8 x i8] c"L3Cache\00", align 1
@.str.10 = private unnamed_addr constant [8 x i8] c"L4Cache\00", align 1
@.str.11 = private unnamed_addr constant [8 x i8] c"L5Cache\00", align 1
@.str.12 = private unnamed_addr constant [9 x i8] c"L1iCache\00", align 1
@.str.13 = private unnamed_addr constant [9 x i8] c"L2iCache\00", align 1
@.str.14 = private unnamed_addr constant [9 x i8] c"L3iCache\00", align 1
@.str.15 = private unnamed_addr constant [5 x i8] c"Core\00", align 1
@.str.16 = private unnamed_addr constant [7 x i8] c"Bridge\00", align 1
@.str.17 = private unnamed_addr constant [7 x i8] c"PCIDev\00", align 1
@.str.18 = private unnamed_addr constant [6 x i8] c"OSDev\00", align 1
@.str.19 = private unnamed_addr constant [3 x i8] c"PU\00", align 1
@.str.20 = private unnamed_addr constant [8 x i8] c"Unknown\00", align 1

; Function Attrs: nounwind willreturn memory(none) uwtable
define ptr @hwloc_obj_type_string(i32 noundef %0) #5 {
  %2 = alloca ptr, align 8
  %3 = alloca i32, align 4
  store i32 %0, ptr %3, align 4, !tbaa !8
  %4 = load i32, ptr %3, align 4, !tbaa !8
  switch i32 %4, label %25 [
    i32 0, label %5
    i32 19, label %6
    i32 13, label %7
    i32 15, label %8
    i32 14, label %9
    i32 1, label %10
    i32 2, label %11
    i32 5, label %12
    i32 6, label %13
    i32 7, label %14
    i32 8, label %15
    i32 9, label %16
    i32 10, label %17
    i32 11, label %18
    i32 12, label %19
    i32 3, label %20
    i32 16, label %21
    i32 17, label %22
    i32 18, label %23
    i32 4, label %24
  ]

5:                                                ; preds = %1
  store ptr @.str, ptr %2, align 8
  br label %26

6:                                                ; preds = %1
  store ptr @.str.1, ptr %2, align 8
  br label %26

7:                                                ; preds = %1
  store ptr @.str.2, ptr %2, align 8
  br label %26

8:                                                ; preds = %1
  store ptr @.str.3, ptr %2, align 8
  br label %26

9:                                                ; preds = %1
  store ptr @.str.4, ptr %2, align 8
  br label %26

10:                                               ; preds = %1
  store ptr @.str.5, ptr %2, align 8
  br label %26

11:                                               ; preds = %1
  store ptr @.str.6, ptr %2, align 8
  br label %26

12:                                               ; preds = %1
  store ptr @.str.7, ptr %2, align 8
  br label %26

13:                                               ; preds = %1
  store ptr @.str.8, ptr %2, align 8
  br label %26

14:                                               ; preds = %1
  store ptr @.str.9, ptr %2, align 8
  br label %26

15:                                               ; preds = %1
  store ptr @.str.10, ptr %2, align 8
  br label %26

16:                                               ; preds = %1
  store ptr @.str.11, ptr %2, align 8
  br label %26

17:                                               ; preds = %1
  store ptr @.str.12, ptr %2, align 8
  br label %26

18:                                               ; preds = %1
  store ptr @.str.13, ptr %2, align 8
  br label %26

19:                                               ; preds = %1
  store ptr @.str.14, ptr %2, align 8
  br label %26

20:                                               ; preds = %1
  store ptr @.str.15, ptr %2, align 8
  br label %26

21:                                               ; preds = %1
  store ptr @.str.16, ptr %2, align 8
  br label %26

22:                                               ; preds = %1
  store ptr @.str.17, ptr %2, align 8
  br label %26

23:                                               ; preds = %1
  store ptr @.str.18, ptr %2, align 8
  br label %26

24:                                               ; preds = %1
  store ptr @.str.19, ptr %2, align 8
  br label %26

25:                                               ; preds = %1
  store ptr @.str.20, ptr %2, align 8
  br label %26

26:                                               ; preds = %25, %24, %23, %22, %21, %20, %19, %18, %17, %16, %15, %14, %13, %12, %11, %10, %9, %8, %7, %6, %5
  %27 = load ptr, ptr %2, align 8
  ret ptr %27
}